target datalayout = "e-m:e-p270:32:32-p271:32:32-p272:64:64-i64:64-i128:128-f80:128-n8:16:32:64-S128"
target triple = "x86_64-pc-linux-gnu"

%struct.UList = type { ptr, ptr, ptr, i32 }
%struct.UListNode = type { ptr, ptr, ptr, i8 }

; Function Attrs: mustprogress nounwind uwtable
define internal void @_ZL18ulist_addFirstItemP5UListP9UListNode(ptr noundef %0, ptr noundef %1) #5 {
  %3 = alloca ptr, align 8
  %4 = alloca ptr, align 8
  store ptr %0, ptr %3, align 8, !tbaa !7
  store ptr %1, ptr %4, align 8, !tbaa !19
  %5 = load ptr, ptr %4, align 8, !tbaa !19
  %6 = getelementptr inbounds nuw %struct.UListNode, ptr %5, i32 0, i32 1
  store ptr null, ptr %6, align 8, !tbaa !23
  %7 = load ptr, ptr %4, align 8, !tbaa !19
  %8 = getelementptr inbounds nuw %struct.UListNode, ptr %7, i32 0, i32 2
  store ptr null, ptr %8, align 8, !tbaa !24
  %9 = load ptr, ptr %4, align 8, !tbaa !19
  %10 = load ptr, ptr %3, align 8, !tbaa !7
  %11 = getelementptr inbounds nuw %struct.UList, ptr %10, i32 0, i32 1
  store ptr %9, ptr %11, align 8, !tbaa !15
  %12 = load ptr, ptr %4, align 8, !tbaa !19
  %13 = load ptr, ptr %3, align 8, !tbaa !7
  %14 = getelementptr inbounds nuw %struct.UList, ptr %13, i32 0, i32 2
  store ptr %12, ptr %14, align 8, !tbaa !16
  ret void
}

; Function Attrs: inlinehint mustprogress nounwind uwtable
define internal noundef signext i8 @_ZL9U_FAILURE10UErrorCode(i32 noundef %0) #2 {
  %2 = alloca i32, align 4
  store i32 %0, ptr %2, align 4, !tbaa !9
  %3 = load i32, ptr %2, align 4, !tbaa !9
  %4 = icmp sgt i32 %3, 0
  %5 = zext i1 %4 to i8
  ret i8 %5
}

; Function Attrs: mustprogress uwtable
define void @ulist_addItemBeginList_77(ptr noundef %0, ptr noundef %1, i8 noundef signext %2, ptr noundef %3) #0 {
  %5 = alloca ptr, align 8
  %6 = alloca ptr, align 8
  %7 = alloca i8, align 1
  %8 = alloca ptr, align 8
  %9 = alloca ptr, align 8
  %10 = alloca i32, align 4
  store ptr %0, ptr %5, align 8, !tbaa !7
  store ptr %1, ptr %6, align 8, !tbaa !3
  store i8 %2, ptr %7, align 1, !tbaa !18
  store ptr %3, ptr %8, align 8, !tbaa !3
  call void @llvm.lifetime.start.p0(i64 8, ptr %9) #7
  store ptr null, ptr %9, align 8, !tbaa !19
  %11 = load ptr, ptr %8, align 8, !tbaa !3
  %12 = load i32, ptr %11, align 4, !tbaa !9
  %13 = call noundef signext i8 @_ZL9U_FAILURE10UErrorCode(i32 noundef %12)
  %14 = icmp ne i8 %13, 0
  br i1 %14, label %21, label %15

15:                                               ; preds = %4
  %16 = load ptr, ptr %5, align 8, !tbaa !7
  %17 = icmp eq ptr %16, null
  br i1 %17, label %21, label %18

18:                                               ; preds = %15
  %19 = load ptr, ptr %6, align 8, !tbaa !3
  %20 = icmp eq ptr %19, null
  br i1 %20, label %21, label %27

21:                                               ; preds = %18, %15, %4
  %22 = load i8, ptr %7, align 1, !tbaa !18
  %23 = icmp ne i8 %22, 0
  br i1 %23, label %24, label %26

24:                                               ; preds = %21
  %25 = load ptr, ptr %6, align 8, !tbaa !3
  call void @uprv_free_77(ptr noundef %25)
  br label %26

26:                                               ; preds = %24, %21
  store i32 1, ptr %10, align 4
  br label %73

27:                                               ; preds = %18
  %28 = call noalias ptr @uprv_malloc_77(i64 noundef 32) #8
  store ptr %28, ptr %9, align 8, !tbaa !19
  %29 = load ptr, ptr %9, align 8, !tbaa !19
  %30 = icmp eq ptr %29, null
  br i1 %30, label %31, label %38

31:                                               ; preds = %27
  %32 = load i8, ptr %7, align 1, !tbaa !18
  %33 = icmp ne i8 %32, 0
  br i1 %33, label %34, label %36

34:                                               ; preds = %31
  %35 = load ptr, ptr %6, align 8, !tbaa !3
  call void @uprv_free_77(ptr noundef %35)
  br label %36

36:                                               ; preds = %34, %31
  %37 = load ptr, ptr %8, align 8, !tbaa !3
  store i32 7, ptr %37, align 4, !tbaa !9
  store i32 1, ptr %10, align 4
  br label %73

38:                                               ; preds = %27
  %39 = load ptr, ptr %6, align 8, !tbaa !3
  %40 = load ptr, ptr %9, align 8, !tbaa !19
  %41 = getelementptr inbounds nuw %struct.UListNode, ptr %40, i32 0, i32 0
  store ptr %39, ptr %41, align 8, !tbaa !20
  %42 = load i8, ptr %7, align 1, !tbaa !18
  %43 = load ptr, ptr %9, align 8, !tbaa !19
  %44 = getelementptr inbounds nuw %struct.UListNode, ptr %43, i32 0, i32 3
  store i8 %42, ptr %44, align 8, !tbaa !22
  %45 = load ptr, ptr %5, align 8, !tbaa !7
  %46 = getelementptr inbounds nuw %struct.UList, ptr %45, i32 0, i32 3
  %47 = load i32, ptr %46, align 8, !tbaa !17
  %48 = icmp eq i32 %47, 0
  br i1 %48, label %49, label %52

49:                                               ; preds = %38
  %50 = load ptr, ptr %5, align 8, !tbaa !7
  %51 = load ptr, ptr %9, align 8, !tbaa !19
  call void @_ZL18ulist_addFirstItemP5UListP9UListNode(ptr noundef %50, ptr noundef %51)
  br label %68

52:                                               ; preds = %38
  %53 = load ptr, ptr %9, align 8, !tbaa !19
  %54 = getelementptr inbounds nuw %struct.UListNode, ptr %53, i32 0, i32 2
  store ptr null, ptr %54, align 8, !tbaa !24
  %55 = load ptr, ptr %5, align 8, !tbaa !7
  %56 = getelementptr inbounds nuw %struct.UList, ptr %55, i32 0, i32 1
  %57 = load ptr, ptr %56, align 8, !tbaa !15
  %58 = load ptr, ptr %9, align 8, !tbaa !19
  %59 = getelementptr inbounds nuw %struct.UListNode, ptr %58, i32 0, i32 1
  store ptr %57, ptr %59, align 8, !tbaa !23
  %60 = load ptr, ptr %9, align 8, !tbaa !19
  %61 = load ptr, ptr %5, align 8, !tbaa !7
  %62 = getelementptr inbounds nuw %struct.UList, ptr %61, i32 0, i32 1
  %63 = load ptr, ptr %62, align 8, !tbaa !15
  %64 = getelementptr inbounds nuw %struct.UListNode, ptr %63, i32 0, i32 2
  store ptr %60, ptr %64, align 8, !tbaa !24
  %65 = load ptr, ptr %9, align 8, !tbaa !19
  %66 = load ptr, ptr %5, align 8, !tbaa !7
  %67 = getelementptr inbounds nuw %struct.UList, ptr %66, i32 0, i32 1
  store ptr %65, ptr %67, align 8, !tbaa !15
  br label %68

68:                                               ; preds = %52, %49
  %69 = load ptr, ptr %5, align 8, !tbaa !7
  %70 = getelementptr inbounds nuw %struct.UList, ptr %69, i32 0, i32 3
  %71 = load i32, ptr %70, align 8, !tbaa !17
  %72 = add nsw i32 %71, 1
  store i32 %72, ptr %70, align 8, !tbaa !17
  store i32 0, ptr %10, align 4
  br label %73

73:                                               ; preds = %68, %36, %26
  call void @llvm.lifetime.end.p0(i64 8, ptr %9) #7
  %74 = load i32, ptr %10, align 4
  switch i32 %74, label %76 [
    i32 0, label %75
    i32 1, label %75
  ]

75:                                               ; preds = %73, %73
  ret void

76:                                               ; preds = %73
  unreachable
}