; Function Attrs: mustprogress uwtable
define void @ulist_addItemBeginList_77(ptr noundef %0, ptr noundef %1, i8 noundef signext %2, ptr noundef captures(none) %3) local_unnamed_addr #0 {
  %5 = load i32, ptr %3, align 4, !tbaa !3
  %6 = icmp sgt i32 %5, 0
  %7 = icmp eq ptr %0, null
  %or.cond = or i1 %7, %6
  %8 = icmp eq ptr %1, null
  %or.cond3 = or i1 %8, %or.cond
  br i1 %or.cond3, label %9, label %11

9:                                                ; preds = %4
  %.not28 = icmp eq i8 %2, 0
  br i1 %.not28, label %34, label %10

10:                                               ; preds = %9
  tail call void @uprv_free_77(ptr noundef %1)
  br label %34

11:                                               ; preds = %4
  %12 = tail call noalias dereferenceable_or_null(32) ptr @uprv_malloc_77(i64 noundef 32) #13
  %13 = icmp eq ptr %12, null
  br i1 %13, label %14, label %17

14:                                               ; preds = %11
  %.not = icmp eq i8 %2, 0
  br i1 %.not, label %16, label %15

15:                                               ; preds = %14
  tail call void @uprv_free_77(ptr noundef nonnull %1)
  br label %16

16:                                               ; preds = %15, %14
  store i32 7, ptr %3, align 4, !tbaa !3
  br label %34

17:                                               ; preds = %11
  store ptr %1, ptr %12, align 8, !tbaa !7
  %18 = getelementptr inbounds nuw i8, ptr %12, i64 24
  store i8 %2, ptr %18, align 8, !tbaa !11
  %19 = getelementptr inbounds nuw i8, ptr %0, i64 24
  %20 = load i32, ptr %19, align 8, !tbaa !12
  %21 = icmp eq i32 %20, 0
  br i1 %21, label %22, label %26

22:                                               ; preds = %17
  %23 = getelementptr inbounds nuw i8, ptr %12, i64 8
  %24 = getelementptr inbounds nuw i8, ptr %0, i64 8
  tail call void @llvm.memset.p0.i64(ptr noundef nonnull align 8 dereferenceable(16) %23, i8 0, i64 16, i1 false)
  store ptr %12, ptr %24, align 8, !tbaa !15
  %25 = getelementptr inbounds nuw i8, ptr %0, i64 16
  store ptr %12, ptr %25, align 8, !tbaa !16
  br label %32

26:                                               ; preds = %17
  %27 = getelementptr inbounds nuw i8, ptr %12, i64 16
  store ptr null, ptr %27, align 8, !tbaa !18
  %28 = getelementptr inbounds nuw i8, ptr %0, i64 8
  %29 = load ptr, ptr %28, align 8, !tbaa !15
  %30 = getelementptr inbounds nuw i8, ptr %12, i64 8
  store ptr %29, ptr %30, align 8, !tbaa !17
  %31 = getelementptr inbounds nuw i8, ptr %29, i64 16
  store ptr %12, ptr %31, align 8, !tbaa !18
  store ptr %12, ptr %28, align 8, !tbaa !15
  br label %32

32:                                               ; preds = %26, %22
  %33 = add nsw i32 %20, 1
  store i32 %33, ptr %19, align 8, !tbaa !12
  br label %34

34:                                               ; preds = %9, %10, %32, %16
  ret void
}